; Function Attrs: mustprogress uwtable
define void @_ZNK32pxrInternal_v0_24__pxrReserved__16HfPluginRegistry11GetPluginIdEPKNS_12HfPluginBaseE(ptr dead_on_unwind noalias writable sret(%"class.pxrInternal_v0_24__pxrReserved__::TfToken") align 8 %0, ptr nocapture noundef nonnull readonly align 8 dereferenceable(89) %1, ptr noundef readnone %2) local_unnamed_addr #4 align 2 {
  %4 = getelementptr inbounds nuw i8, ptr %1, i64 16
  %5 = load ptr, ptr %4, align 8
  %6 = getelementptr inbounds i8, ptr %1, i64 24
  %7 = load ptr, ptr %6, align 8
  %.not10 = icmp eq ptr %5, %7
  br i1 %.not10, label %._crit_edge, label %.lr.ph

.lr.ph:                                           ; preds = %3, %12
  %.sroa.06.011 = phi ptr [ %13, %12 ], [ %5, %3 ]
  %8 = getelementptr inbounds nuw i8, ptr %.sroa.06.011, i64 48
  %9 = load ptr, ptr %8, align 8
  %10 = icmp eq ptr %9, %2
  br i1 %10, label %11, label %12

11:                                               ; preds = %.lr.ph
  tail call void @_ZNK32pxrInternal_v0_24__pxrReserved__14Hf_PluginEntry5GetIdEv(ptr dead_on_unwind writable sret(%"class.pxrInternal_v0_24__pxrReserved__::TfToken") align 8 %0, ptr noundef nonnull align 8 dereferenceable(64) %.sroa.06.011)
  br label %14

12:                                               ; preds = %.lr.ph
  %13 = getelementptr inbounds i8, ptr %.sroa.06.011, i64 64
  %.not = icmp eq ptr %13, %7
  br i1 %.not, label %._crit_edge, label %.lr.ph

._crit_edge:                                      ; preds = %12, %3
  store ptr null, ptr %0, align 8
  br label %14

14:                                               ; preds = %._crit_edge, %11
  ret void
}